; Function Attrs: mustprogress uwtable
define noundef i32 @ucol_getReorderCodes_75(ptr noundef %coll, ptr noundef %dest, i32 noundef %destCapacity, ptr noundef %status) local_unnamed_addr #0 {
entry:
  %0 = load i32, ptr %status, align 4
  %cmp.i = icmp slt i32 %0, 1
  br i1 %cmp.i, label %if.end, label %return

if.end:                                           ; preds = %entry
  %vtable = load ptr, ptr %coll, align 8
  %vfn = getelementptr inbounds i8, ptr %vtable, i64 160
  %1 = load ptr, ptr %vfn, align 8
  %call2 = tail call noundef i32 %1(ptr noundef nonnull align 8 dereferenceable(8) %coll, ptr noundef %dest, i32 noundef %destCapacity, ptr noundef nonnull align 4 dereferenceable(4) %status)
  br label %return

return:                                           ; preds = %entry, %if.end
  %retval.0 = phi i32 [ %call2, %if.end ], [ 0, %entry ]
  ret i32 %retval.0
}